target datalayout = "e-m:e-p270:32:32-p271:32:32-p272:64:64-i64:64-i128:128-f80:128-n8:16:32:64-S128"
target triple = "x86_64-pc-linux-gnu"

%"class.std::__cxx11::basic_string" = type { %"struct.std::__cxx11::basic_string<char>::_Alloc_hider", i64, %union.anon }
%"struct.std::__cxx11::basic_string<char>::_Alloc_hider" = type { ptr }
%union.anon = type { i64, [8 x i8] }
%"class.rocksdb::Slice" = type { ptr, i64 }
%"class.rocksdb::Status" = type { i8, i8, i8, i8, i8, i8, %"class.std::unique_ptr" }
%"class.std::unique_ptr" = type { %"struct.std::__uniq_ptr_data" }
%"struct.std::__uniq_ptr_data" = type { %"class.std::__uniq_ptr_impl" }
%"class.std::__uniq_ptr_impl" = type { %"class.std::tuple" }
%"class.std::tuple" = type { %"struct.std::_Tuple_impl" }
%"struct.std::_Tuple_impl" = type { %"struct.std::_Head_base.12" }
%"struct.std::_Head_base.12" = type { ptr }
%"class.rocksdb::(anonymous namespace)::ExternalTableIterator" = type { %"class.rocksdb::InternalIteratorBase", %"class.std::unique_ptr.123", %"class.rocksdb::InternalKey", %"class.rocksdb::Status" }
%"class.rocksdb::InternalIteratorBase" = type { ptr, %"class.rocksdb::Cleanable" }
%"class.rocksdb::Cleanable" = type { %"struct.rocksdb::Cleanable::Cleanup" }
%"struct.rocksdb::Cleanable::Cleanup" = type { ptr, ptr, ptr, ptr }
%"class.std::unique_ptr.123" = type { %"struct.std::__uniq_ptr_data.124" }
%"struct.std::__uniq_ptr_data.124" = type { %"class.std::__uniq_ptr_impl.125" }
%"class.std::__uniq_ptr_impl.125" = type { %"class.std::tuple.126" }
%"class.std::tuple.126" = type { %"struct.std::_Tuple_impl.127" }
%"struct.std::_Tuple_impl.127" = type { %"struct.std::_Head_base.130" }
%"struct.std::_Head_base.130" = type { ptr }
%"class.rocksdb::InternalKey" = type { %"class.std::__cxx11::basic_string" }

@.str = private unnamed_addr constant [1 x i8] zeroinitializer, align 1

; Function Attrs: mustprogress nounwind uwtable
define linkonce_odr noundef nonnull align 8 dereferenceable(8) ptr @_ZNSt10_Head_baseILm0EPN7rocksdb8IteratorELb0EE7_M_headERKS3_(ptr noundef nonnull align 8 dereferenceable(8) %0) #4 comdat align 2 {
  %2 = alloca ptr, align 8
  store ptr %0, ptr %2, align 8, !tbaa !425
  %3 = load ptr, ptr %2, align 8, !tbaa !425
  %4 = getelementptr inbounds nuw %"struct.std::_Head_base.130", ptr %3, i32 0, i32 0
  ret ptr %4
}

; Function Attrs: mustprogress nounwind uwtable
define linkonce_odr noundef nonnull align 8 dereferenceable(8) ptr @_ZNSt11_Tuple_implILm0EJPN7rocksdb8IteratorESt14default_deleteIS1_EEE7_M_headERKS5_(ptr noundef nonnull align 8 dereferenceable(8) %0) #4 comdat align 2 {
  %2 = alloca ptr, align 8
  store ptr %0, ptr %2, align 8, !tbaa !421
  %3 = load ptr, ptr %2, align 8, !tbaa !421
  %4 = call noundef nonnull align 8 dereferenceable(8) ptr @_ZNSt10_Head_baseILm0EPN7rocksdb8IteratorELb0EE7_M_headERKS3_(ptr noundef nonnull align 8 dereferenceable(8) %3) #5
  ret ptr %4
}

; Function Attrs: mustprogress nounwind uwtable
define linkonce_odr noundef nonnull align 8 dereferenceable(8) ptr @_ZSt12__get_helperILm0EPN7rocksdb8IteratorEJSt14default_deleteIS1_EEERKT0_RKSt11_Tuple_implIXT_EJS5_DpT1_EE(ptr noundef nonnull align 8 dereferenceable(8) %0) #4 comdat {
  %2 = alloca ptr, align 8
  store ptr %0, ptr %2, align 8, !tbaa !421
  %3 = load ptr, ptr %2, align 8, !tbaa !421
  %4 = call noundef nonnull align 8 dereferenceable(8) ptr @_ZNSt11_Tuple_implILm0EJPN7rocksdb8IteratorESt14default_deleteIS1_EEE7_M_headERKS5_(ptr noundef nonnull align 8 dereferenceable(8) %3) #5
  ret ptr %4
}

; Function Attrs: mustprogress nounwind uwtable
define linkonce_odr noundef nonnull align 8 dereferenceable(8) ptr @_ZSt3getILm0EJPN7rocksdb8IteratorESt14default_deleteIS1_EEERKNSt13tuple_elementIXT_ESt5tupleIJDpT0_EEE4typeERKS9_(ptr noundef nonnull align 8 dereferenceable(8) %0) #4 comdat {
  %2 = alloca ptr, align 8
  store ptr %0, ptr %2, align 8, !tbaa !419
  %3 = load ptr, ptr %2, align 8, !tbaa !419
  %4 = call noundef nonnull align 8 dereferenceable(8) ptr @_ZSt12__get_helperILm0EPN7rocksdb8IteratorEJSt14default_deleteIS1_EEERKT0_RKSt11_Tuple_implIXT_EJS5_DpT1_EE(ptr noundef nonnull align 8 dereferenceable(8) %3) #5
  ret ptr %4
}

; Function Attrs: mustprogress nounwind uwtable
define linkonce_odr noundef ptr @_ZNKSt15__uniq_ptr_implIN7rocksdb8IteratorESt14default_deleteIS1_EE6_M_ptrEv(ptr noundef nonnull align 8 dereferenceable(8) %0) #4 comdat align 2 {
  %2 = alloca ptr, align 8
  store ptr %0, ptr %2, align 8, !tbaa !417
  %3 = load ptr, ptr %2, align 8
  %4 = getelementptr inbounds nuw %"class.std::__uniq_ptr_impl.125", ptr %3, i32 0, i32 0
  %5 = call noundef nonnull align 8 dereferenceable(8) ptr @_ZSt3getILm0EJPN7rocksdb8IteratorESt14default_deleteIS1_EEERKNSt13tuple_elementIXT_ESt5tupleIJDpT0_EEE4typeERKS9_(ptr noundef nonnull align 8 dereferenceable(8) %4) #5
  %6 = load ptr, ptr %5, align 8, !tbaa !349
  ret ptr %6
}

; Function Attrs: mustprogress nounwind uwtable
define linkonce_odr noundef ptr @_ZNKSt10unique_ptrIN7rocksdb8IteratorESt14default_deleteIS1_EE3getEv(ptr noundef nonnull align 8 dereferenceable(8) %0) #4 comdat align 2 {
  %2 = alloca ptr, align 8
  store ptr %0, ptr %2, align 8, !tbaa !398
  %3 = load ptr, ptr %2, align 8
  %4 = getelementptr inbounds nuw %"class.std::unique_ptr.123", ptr %3, i32 0, i32 0
  %5 = call noundef ptr @_ZNKSt15__uniq_ptr_implIN7rocksdb8IteratorESt14default_deleteIS1_EE6_M_ptrEv(ptr noundef nonnull align 8 dereferenceable(8) %4) #5
  ret ptr %5
}

; Function Attrs: mustprogress nounwind uwtable
define linkonce_odr void @_ZN7rocksdb5SliceC2Ev(ptr noundef nonnull align 8 dereferenceable(16) %0) unnamed_addr #4 comdat align 2 {
  %2 = alloca ptr, align 8
  store ptr %0, ptr %2, align 8, !tbaa !10
  %3 = load ptr, ptr %2, align 8
  %4 = getelementptr inbounds nuw %"class.rocksdb::Slice", ptr %3, i32 0, i32 0
  store ptr @.str, ptr %4, align 8, !tbaa !15
  %5 = getelementptr inbounds nuw %"class.rocksdb::Slice", ptr %3, i32 0, i32 1
  store i64 0, ptr %5, align 8, !tbaa !17
  ret void
}

; Function Attrs: mustprogress nounwind uwtable
define linkonce_odr noundef ptr @_ZNKSt10unique_ptrIN7rocksdb8IteratorESt14default_deleteIS1_EEptEv(ptr noundef nonnull align 8 dereferenceable(8) %0) #4 comdat align 2 {
  %2 = alloca ptr, align 8
  store ptr %0, ptr %2, align 8, !tbaa !398
  %3 = load ptr, ptr %2, align 8
  %4 = call noundef ptr @_ZNKSt10unique_ptrIN7rocksdb8IteratorESt14default_deleteIS1_EE3getEv(ptr noundef nonnull align 8 dereferenceable(8) %3) #5
  ret ptr %4
}

; Function Attrs: mustprogress nounwind uwtable
define linkonce_odr noundef zeroext i1 @_ZNKSt10unique_ptrIN7rocksdb8IteratorESt14default_deleteIS1_EEcvbEv(ptr noundef nonnull align 8 dereferenceable(8) %0) #4 comdat align 2 {
  %2 = alloca ptr, align 8
  store ptr %0, ptr %2, align 8, !tbaa !398
  %3 = load ptr, ptr %2, align 8
  %4 = call noundef ptr @_ZNKSt10unique_ptrIN7rocksdb8IteratorESt14default_deleteIS1_EE3getEv(ptr noundef nonnull align 8 dereferenceable(8) %3) #5
  %5 = icmp eq ptr %4, null
  %6 = select i1 %5, i1 false, i1 true
  ret i1 %6
}

; Function Attrs: mustprogress uwtable
define internal { ptr, i64 } @_ZNK7rocksdb12_GLOBAL__N_121ExternalTableIterator5valueEv(ptr noundef nonnull align 8 dereferenceable(96) %0) unnamed_addr #6 align 2 {
  %2 = alloca %"class.rocksdb::Slice", align 8
  %3 = alloca ptr, align 8
  store ptr %0, ptr %3, align 8, !tbaa !394
  %4 = load ptr, ptr %3, align 8
  %5 = getelementptr inbounds nuw %"class.rocksdb::(anonymous namespace)::ExternalTableIterator", ptr %4, i32 0, i32 1
  %6 = call noundef zeroext i1 @_ZNKSt10unique_ptrIN7rocksdb8IteratorESt14default_deleteIS1_EEcvbEv(ptr noundef nonnull align 8 dereferenceable(8) %5) #5
  br i1 %6, label %7, label %18

7:                                                ; preds = %1
  %8 = getelementptr inbounds nuw %"class.rocksdb::(anonymous namespace)::ExternalTableIterator", ptr %4, i32 0, i32 1
  %9 = call noundef ptr @_ZNKSt10unique_ptrIN7rocksdb8IteratorESt14default_deleteIS1_EEptEv(ptr noundef nonnull align 8 dereferenceable(8) %8) #5
  %10 = load ptr, ptr %9, align 8, !tbaa !60
  %11 = getelementptr inbounds ptr, ptr %10, i64 14
  %12 = load ptr, ptr %11, align 8
  %13 = call { ptr, i64 } %12(ptr noundef nonnull align 8 dereferenceable(40) %9)
  %14 = getelementptr inbounds nuw { ptr, i64 }, ptr %2, i32 0, i32 0
  %15 = extractvalue { ptr, i64 } %13, 0
  store ptr %15, ptr %14, align 8
  %16 = getelementptr inbounds nuw { ptr, i64 }, ptr %2, i32 0, i32 1
  %17 = extractvalue { ptr, i64 } %13, 1
  store i64 %17, ptr %16, align 8
  br label %19

18:                                               ; preds = %1
  call void @_ZN7rocksdb5SliceC2Ev(ptr noundef nonnull align 8 dereferenceable(16) %2)
  br label %19

19:                                               ; preds = %18, %7
  %20 = load { ptr, i64 }, ptr %2, align 8
  ret { ptr, i64 } %20
}